; Function Attrs: mustprogress nofree norecurse nosync nounwind willreturn memory(argmem: read) uwtable
define hidden noundef zeroext i1 @_ZNK15static_features8is_denseEv(ptr nocapture noundef nonnull readonly align 8 dereferenceable(792) %this) local_unnamed_addr #5 align 2 {
entry:
  %m_num_uninterpreted_constants = getelementptr inbounds i8, ptr %this, i64 504
  %0 = load i32, ptr %m_num_uninterpreted_constants, align 8
  %cmp = icmp ult i32 %0, 1000
  br i1 %cmp, label %land.rhs, label %land.end

land.rhs:                                         ; preds = %entry
  %m_num_arith_eqs = getelementptr inbounds i8, ptr %this, i64 564
  %1 = load i32, ptr %m_num_arith_eqs, align 4
  %m_num_arith_ineqs = getelementptr inbounds i8, ptr %this, i64 568
  %2 = load i32, ptr %m_num_arith_ineqs, align 8
  %add = add i32 %2, %1
  %mul = mul nuw nsw i32 %0, 9
  %cmp3 = icmp ugt i32 %add, %mul
  br label %land.end

land.end:                                         ; preds = %land.rhs, %entry
  %3 = phi i1 [ false, %entry ], [ %cmp3, %land.rhs ]
  ret i1 %3
}